target datalayout = "e-m:e-p270:32:32-p271:32:32-p272:64:64-i64:64-i128:128-f80:128-n8:16:32:64-S128"
target triple = "x86_64-pc-linux-gnu"

%"class.std::pmr::polymorphic_allocator" = type { ptr }

@_ZN5boost6cobalt11this_thread6detail28default_coro_memory_resourceE = hidden thread_local global ptr null, align 8
@_ZTHN5boost6cobalt11this_thread6detail28default_coro_memory_resourceE = hidden alias void (), ptr @__tls_init

; Function Attrs: uwtable
define weak_odr hidden noundef ptr @_ZTWN5boost6cobalt11this_thread6detail28default_coro_memory_resourceE() #10 comdat {
  call void @_ZTHN5boost6cobalt11this_thread6detail28default_coro_memory_resourceE()
  %1 = call align 8 ptr @llvm.threadlocal.address.p0(ptr align 8 @_ZN5boost6cobalt11this_thread6detail28default_coro_memory_resourceE)
  ret ptr %1
}

; Function Attrs: mustprogress nounwind uwtable
define linkonce_odr hidden void @_ZNSt3pmr21polymorphic_allocatorIvEC2EPNS_15memory_resourceE(ptr noundef nonnull align 8 dereferenceable(8) %0, ptr noundef nonnull %1) unnamed_addr #2 comdat align 2 {
  %3 = alloca ptr, align 8
  %4 = alloca ptr, align 8
  store ptr %0, ptr %3, align 8, !tbaa !7
  store ptr %1, ptr %4, align 8, !tbaa !7
  %5 = load ptr, ptr %3, align 8
  %6 = getelementptr inbounds nuw %"class.std::pmr::polymorphic_allocator", ptr %5, i32 0, i32 0
  %7 = load ptr, ptr %4, align 8, !tbaa !7
  store ptr %7, ptr %6, align 8, !tbaa !14
  ret void
}

; Function Attrs: mustprogress nounwind uwtable
define noundef ptr @_ZN5boost6cobalt11this_thread20get_default_resourceEv() #2 {
  %1 = call ptr @_ZTWN5boost6cobalt11this_thread6detail28default_coro_memory_resourceE()
  %2 = load ptr, ptr %1, align 8, !tbaa !7
  ret ptr %2
}

; Function Attrs: mustprogress nounwind uwtable
define ptr @_ZN5boost6cobalt11this_thread13get_allocatorEv() #2 {
  %1 = alloca %"class.std::pmr::polymorphic_allocator", align 8
  %2 = call noundef ptr @_ZN5boost6cobalt11this_thread20get_default_resourceEv() #9
  call void @_ZNSt3pmr21polymorphic_allocatorIvEC2EPNS_15memory_resourceE(ptr noundef nonnull align 8 dereferenceable(8) %1, ptr noundef %2) #9
  %3 = getelementptr inbounds nuw %"class.std::pmr::polymorphic_allocator", ptr %1, i32 0, i32 0
  %4 = load ptr, ptr %3, align 8
  ret ptr %4
}