; Function Attrs: nounwind uwtable
define ptr @_ZN5boost6cobalt11this_thread13get_allocatorEv() local_unnamed_addr #7 {
  %1 = load i8, ptr @__tls_guard, align 1
  %2 = icmp eq i8 %1, 0
  br i1 %2, label %3, label %._ZTHN5boost6cobalt11this_thread6detail28default_coro_memory_resourceE.exit_crit_edge.i.i, !prof !17

._ZTHN5boost6cobalt11this_thread6detail28default_coro_memory_resourceE.exit_crit_edge.i.i: ; preds = %0
  %.pre.i.i = tail call align 8 ptr @llvm.threadlocal.address.p0(ptr align 8 @_ZN5boost6cobalt11this_thread6detail28default_coro_memory_resourceE)
  br label %_ZN5boost6cobalt11this_thread20get_default_resourceEv.exit

3:                                                ; preds = %0
  store i8 1, ptr @__tls_guard, align 1
  %4 = tail call ptr @llvm.invariant.start.p0(i64 1, ptr nonnull @__tls_guard)
  %5 = tail call noundef nonnull ptr @_ZNSt3pmr20get_default_resourceEv() #6
  %6 = tail call align 8 ptr @llvm.threadlocal.address.p0(ptr align 8 @_ZN5boost6cobalt11this_thread6detail28default_coro_memory_resourceE)
  store ptr %5, ptr %6, align 8, !tbaa !18
  %7 = tail call i32 @__cxa_thread_atexit(ptr nonnull @_ZNSt14_Optional_baseIN5boost4asio15any_io_executorELb0ELb0EED2Ev, ptr nonnull @_ZN5boost6cobalt11this_thread6detail8executorE, ptr nonnull @__dso_handle) #6
  br label %_ZN5boost6cobalt11this_thread20get_default_resourceEv.exit

_ZN5boost6cobalt11this_thread20get_default_resourceEv.exit: ; preds = %._ZTHN5boost6cobalt11this_thread6detail28default_coro_memory_resourceE.exit_crit_edge.i.i, %3
  %.pre-phi.i.i = phi ptr [ %.pre.i.i, %._ZTHN5boost6cobalt11this_thread6detail28default_coro_memory_resourceE.exit_crit_edge.i.i ], [ %6, %3 ]
  %8 = load ptr, ptr %.pre-phi.i.i, align 8, !tbaa !18
  ret ptr %8
}